target datalayout = "e-m:e-p270:32:32-p271:32:32-p272:64:64-i64:64-i128:128-f80:128-n8:16:32:64-S128"
target triple = "x86_64-pc-linux-gnu"

%struct.strbuf = type { i64, i64, ptr }
%struct.trace_key = type { ptr, i32, i8 }
%struct.index_state = type { ptr, i32, i32, i32, i32, ptr, ptr, ptr, %struct.cache_time, i8, i32, %struct.hashmap, %struct.hashmap, %struct.object_id, ptr, ptr, ptr, ptr, ptr, ptr, ptr }
%struct.cache_time = type { i32, i32 }
%struct.hashmap = type { ptr, ptr, ptr, i32, i32, i32, i32, i8 }
%struct.object_id = type { [32 x i8], i32 }
%struct.ewah_bitmap = type { ptr, i64, i64, i64, ptr }

@trace_fsmonitor = dso_local global { ptr, i32, i8, [3 x i8] } { ptr @.str, i32 0, i8 0, [3 x i8] zeroinitializer }, align 8
@__const.read_fsmonitor_extension.last_update = private unnamed_addr constant %struct.strbuf { i64 0, i64 0, ptr @strbuf_slopbuf }, align 8
@.str.1 = private unnamed_addr constant [40 x i8] c"corrupt fsmonitor extension (too short)\00", align 1
@.str.2 = private unnamed_addr constant [4 x i8] c"%lu\00", align 1
@.str.3 = private unnamed_addr constant [25 x i8] c"bad fsmonitor version %d\00", align 1
@.str.4 = private unnamed_addr constant [62 x i8] c"failed to parse ewah bitmap reading fsmonitor index extension\00", align 1
@.str.5 = private unnamed_addr constant [12 x i8] c"fsmonitor.c\00", align 1
@.str.6 = private unnamed_addr constant [6 x i8] c"index\00", align 1
@.str.7 = private unnamed_addr constant [26 x i8] c"extension/fsmn/read/token\00", align 1
@.str.8 = private unnamed_addr constant [41 x i8] c"read fsmonitor extension successful '%s'\00", align 1
@.str.27 = private unnamed_addr constant [59 x i8] c"fsmonitor_dirty has more entries than the index (%lu > %u)\00", align 1

; Function Attrs: inlinehint nounwind uwtable
define internal i32 @trace_pass_fl(ptr noundef %0) #4 {
  %2 = alloca ptr, align 8
  store ptr %0, ptr %2, align 8, !tbaa !44
  %3 = load ptr, ptr %2, align 8, !tbaa !44
  %4 = getelementptr inbounds nuw %struct.trace_key, ptr %3, i32 0, i32 1
  %5 = load i32, ptr %4, align 8, !tbaa !46
  %6 = icmp ne i32 %5, 0
  br i1 %6, label %15, label %7

7:                                                ; preds = %1
  %8 = load ptr, ptr %2, align 8, !tbaa !44
  %9 = getelementptr inbounds nuw %struct.trace_key, ptr %8, i32 0, i32 2
  %10 = load i8, ptr %9, align 4
  %11 = and i8 %10, 1
  %12 = zext i8 %11 to i32
  %13 = icmp ne i32 %12, 0
  %14 = xor i1 %13, true
  br label %15

15:                                               ; preds = %7, %1
  %16 = phi i1 [ true, %1 ], [ %14, %7 ]
  %17 = zext i1 %16 to i32
  ret i32 %17
}

; Function Attrs: nounwind uwtable
define internal void @assert_index_minimum(ptr noundef %0, i64 noundef %1) #0 {
  %3 = alloca ptr, align 8
  %4 = alloca i64, align 8
  store ptr %0, ptr %3, align 8, !tbaa !4
  store i64 %1, ptr %4, align 8, !tbaa !10
  %5 = load i64, ptr %4, align 8, !tbaa !10
  %6 = load ptr, ptr %3, align 8, !tbaa !4
  %7 = getelementptr inbounds nuw %struct.index_state, ptr %6, i32 0, i32 2
  %8 = load i32, ptr %7, align 4, !tbaa !43
  %9 = zext i32 %8 to i64
  %10 = icmp ugt i64 %5, %9
  br i1 %10, label %11, label %16

11:                                               ; preds = %2
  %12 = load i64, ptr %4, align 8, !tbaa !10
  %13 = load ptr, ptr %3, align 8, !tbaa !4
  %14 = getelementptr inbounds nuw %struct.index_state, ptr %13, i32 0, i32 2
  %15 = load i32, ptr %14, align 4, !tbaa !43
  call void (ptr, i32, ptr, ...) @BUG_fl(ptr noundef @.str.5, i32 noundef 28, ptr noundef @.str.27, i64 noundef %12, i32 noundef %15) #10
  unreachable

16:                                               ; preds = %2
  ret void
}

; Function Attrs: inlinehint nounwind uwtable
define internal void @strbuf_addstr(ptr noundef %0, ptr noundef %1) #4 {
  %3 = alloca ptr, align 8
  %4 = alloca ptr, align 8
  store ptr %0, ptr %3, align 8, !tbaa !41
  store ptr %1, ptr %4, align 8, !tbaa !12
  %5 = load ptr, ptr %3, align 8, !tbaa !41
  %6 = load ptr, ptr %4, align 8, !tbaa !12
  %7 = load ptr, ptr %4, align 8, !tbaa !12
  %8 = call i64 @strlen(ptr noundef %7) #9
  call void @strbuf_add(ptr noundef %5, ptr noundef %6, i64 noundef %8)
  ret void
}

; Function Attrs: inlinehint nounwind uwtable
define internal i64 @get_be64(ptr noundef %0) #4 {
  %2 = alloca ptr, align 8
  %3 = alloca ptr, align 8
  store ptr %0, ptr %2, align 8, !tbaa !9
  call void @llvm.lifetime.start.p0(i64 8, ptr %3) #8
  %4 = load ptr, ptr %2, align 8, !tbaa !9
  store ptr %4, ptr %3, align 8, !tbaa !12
  %5 = load ptr, ptr %3, align 8, !tbaa !12
  %6 = getelementptr inbounds i8, ptr %5, i64 0
  %7 = call i32 @get_be32(ptr noundef %6)
  %8 = zext i32 %7 to i64
  %9 = shl i64 %8, 32
  %10 = load ptr, ptr %3, align 8, !tbaa !12
  %11 = getelementptr inbounds i8, ptr %10, i64 4
  %12 = call i32 @get_be32(ptr noundef %11)
  %13 = zext i32 %12 to i64
  %14 = shl i64 %13, 0
  %15 = or i64 %9, %14
  call void @llvm.lifetime.end.p0(i64 8, ptr %3) #8
  ret i64 %15
}

; Function Attrs: inlinehint nounwind uwtable
define internal i32 @get_be32(ptr noundef %0) #4 {
  %2 = alloca ptr, align 8
  %3 = alloca ptr, align 8
  store ptr %0, ptr %2, align 8, !tbaa !9
  call void @llvm.lifetime.start.p0(i64 8, ptr %3) #8
  %4 = load ptr, ptr %2, align 8, !tbaa !9
  store ptr %4, ptr %3, align 8, !tbaa !12
  %5 = load ptr, ptr %3, align 8, !tbaa !12
  %6 = getelementptr inbounds i8, ptr %5, i64 0
  %7 = load i8, ptr %6, align 1, !tbaa !40
  %8 = zext i8 %7 to i32
  %9 = shl i32 %8, 24
  %10 = load ptr, ptr %3, align 8, !tbaa !12
  %11 = getelementptr inbounds i8, ptr %10, i64 1
  %12 = load i8, ptr %11, align 1, !tbaa !40
  %13 = zext i8 %12 to i32
  %14 = shl i32 %13, 16
  %15 = or i32 %9, %14
  %16 = load ptr, ptr %3, align 8, !tbaa !12
  %17 = getelementptr inbounds i8, ptr %16, i64 2
  %18 = load i8, ptr %17, align 1, !tbaa !40
  %19 = zext i8 %18 to i32
  %20 = shl i32 %19, 8
  %21 = or i32 %15, %20
  %22 = load ptr, ptr %3, align 8, !tbaa !12
  %23 = getelementptr inbounds i8, ptr %22, i64 3
  %24 = load i8, ptr %23, align 1, !tbaa !40
  %25 = zext i8 %24 to i32
  %26 = shl i32 %25, 0
  %27 = or i32 %21, %26
  call void @llvm.lifetime.end.p0(i64 8, ptr %3) #8
  ret i32 %27
}

; Function Attrs: inlinehint nounwind uwtable
define internal i32 @const_error() #4 {
  ret i32 -1
}

; Function Attrs: nounwind uwtable
define dso_local i32 @read_fsmonitor_extension(ptr noundef %0, ptr noundef %1, i64 noundef %2) #0 {
  %4 = alloca i32, align 4
  %5 = alloca ptr, align 8
  %6 = alloca ptr, align 8
  %7 = alloca i64, align 8
  %8 = alloca ptr, align 8
  %9 = alloca i32, align 4
  %10 = alloca i32, align 4
  %11 = alloca ptr, align 8
  %12 = alloca i32, align 4
  %13 = alloca i64, align 8
  %14 = alloca %struct.strbuf, align 8
  %15 = alloca i32, align 4
  store ptr %0, ptr %5, align 8, !tbaa !4
  store ptr %1, ptr %6, align 8, !tbaa !9
  store i64 %2, ptr %7, align 8, !tbaa !10
  call void @llvm.lifetime.start.p0(i64 8, ptr %8) #8
  %16 = load ptr, ptr %6, align 8, !tbaa !9
  store ptr %16, ptr %8, align 8, !tbaa !12
  call void @llvm.lifetime.start.p0(i64 4, ptr %9) #8
  call void @llvm.lifetime.start.p0(i64 4, ptr %10) #8
  call void @llvm.lifetime.start.p0(i64 8, ptr %11) #8
  call void @llvm.lifetime.start.p0(i64 4, ptr %12) #8
  call void @llvm.lifetime.start.p0(i64 8, ptr %13) #8
  call void @llvm.lifetime.start.p0(i64 24, ptr %14) #8
  call void @llvm.memcpy.p0.p0.i64(ptr align 8 %14, ptr align 8 @__const.read_fsmonitor_extension.last_update, i64 24, i1 false)
  %17 = load i64, ptr %7, align 8, !tbaa !10
  %18 = icmp ult i64 %17, 9
  br i1 %18, label %19, label %22

19:                                               ; preds = %3
  %20 = call i32 (ptr, ...) @error(ptr noundef @.str.1)
  %21 = call i32 @const_error()
  store i32 %21, ptr %4, align 4
  store i32 1, ptr %15, align 4
  br label %101

22:                                               ; preds = %3
  %23 = load ptr, ptr %8, align 8, !tbaa !12
  %24 = call i32 @get_be32(ptr noundef %23)
  store i32 %24, ptr %9, align 4, !tbaa !14
  %25 = load ptr, ptr %8, align 8, !tbaa !12
  %26 = getelementptr inbounds nuw i8, ptr %25, i64 4
  store ptr %26, ptr %8, align 8, !tbaa !12
  %27 = load i32, ptr %9, align 4, !tbaa !14
  %28 = icmp eq i32 %27, 1
  br i1 %28, label %29, label %35

29:                                               ; preds = %22
  %30 = load ptr, ptr %8, align 8, !tbaa !12
  %31 = call i64 @get_be64(ptr noundef %30)
  store i64 %31, ptr %13, align 8, !tbaa !10
  %32 = load i64, ptr %13, align 8, !tbaa !10
  call void (ptr, ptr, ...) @strbuf_addf(ptr noundef %14, ptr noundef @.str.2, i64 noundef %32)
  %33 = load ptr, ptr %8, align 8, !tbaa !12
  %34 = getelementptr inbounds nuw i8, ptr %33, i64 8
  store ptr %34, ptr %8, align 8, !tbaa !12
  br label %50

35:                                               ; preds = %22
  %36 = load i32, ptr %9, align 4, !tbaa !14
  %37 = icmp eq i32 %36, 2
  br i1 %37, label %38, label %45

38:                                               ; preds = %35
  %39 = load ptr, ptr %8, align 8, !tbaa !12
  call void @strbuf_addstr(ptr noundef %14, ptr noundef %39)
  %40 = getelementptr inbounds nuw %struct.strbuf, ptr %14, i32 0, i32 1
  %41 = load i64, ptr %40, align 8, !tbaa !16
  %42 = add i64 %41, 1
  %43 = load ptr, ptr %8, align 8, !tbaa !12
  %44 = getelementptr inbounds nuw i8, ptr %43, i64 %42
  store ptr %44, ptr %8, align 8, !tbaa !12
  br label %49

45:                                               ; preds = %35
  %46 = load i32, ptr %9, align 4, !tbaa !14
  %47 = call i32 (ptr, ...) @error(ptr noundef @.str.3, i32 noundef %46)
  %48 = call i32 @const_error()
  store i32 %48, ptr %4, align 4
  store i32 1, ptr %15, align 4
  br label %101

49:                                               ; preds = %38
  br label %50

50:                                               ; preds = %49, %29
  %51 = call ptr @strbuf_detach(ptr noundef %14, ptr noundef null)
  %52 = load ptr, ptr %5, align 8, !tbaa !4
  %53 = getelementptr inbounds nuw %struct.index_state, ptr %52, i32 0, i32 15
  store ptr %51, ptr %53, align 8, !tbaa !18
  %54 = load ptr, ptr %8, align 8, !tbaa !12
  %55 = call i32 @get_be32(ptr noundef %54)
  store i32 %55, ptr %10, align 4, !tbaa !14
  %56 = load ptr, ptr %8, align 8, !tbaa !12
  %57 = getelementptr inbounds nuw i8, ptr %56, i64 4
  store ptr %57, ptr %8, align 8, !tbaa !12
  %58 = call ptr @ewah_new()
  store ptr %58, ptr %11, align 8, !tbaa !34
  %59 = load ptr, ptr %11, align 8, !tbaa !34
  %60 = load ptr, ptr %8, align 8, !tbaa !12
  %61 = load i32, ptr %10, align 4, !tbaa !14
  %62 = zext i32 %61 to i64
  %63 = call i64 @ewah_read_mmap(ptr noundef %59, ptr noundef %60, i64 noundef %62)
  %64 = trunc i64 %63 to i32
  store i32 %64, ptr %12, align 4, !tbaa !14
  %65 = load i32, ptr %12, align 4, !tbaa !14
  %66 = load i32, ptr %10, align 4, !tbaa !14
  %67 = icmp ne i32 %65, %66
  br i1 %67, label %68, label %72

68:                                               ; preds = %50
  %69 = load ptr, ptr %11, align 8, !tbaa !34
  call void @ewah_free(ptr noundef %69)
  %70 = call i32 (ptr, ...) @error(ptr noundef @.str.4)
  %71 = call i32 @const_error()
  store i32 %71, ptr %4, align 4
  store i32 1, ptr %15, align 4
  br label %101

72:                                               ; preds = %50
  %73 = load ptr, ptr %11, align 8, !tbaa !34
  %74 = load ptr, ptr %5, align 8, !tbaa !4
  %75 = getelementptr inbounds nuw %struct.index_state, ptr %74, i32 0, i32 16
  store ptr %73, ptr %75, align 8, !tbaa !35
  %76 = load ptr, ptr %5, align 8, !tbaa !4
  %77 = getelementptr inbounds nuw %struct.index_state, ptr %76, i32 0, i32 7
  %78 = load ptr, ptr %77, align 8, !tbaa !36
  %79 = icmp ne ptr %78, null
  br i1 %79, label %87, label %80

80:                                               ; preds = %72
  %81 = load ptr, ptr %5, align 8, !tbaa !4
  %82 = load ptr, ptr %5, align 8, !tbaa !4
  %83 = getelementptr inbounds nuw %struct.index_state, ptr %82, i32 0, i32 16
  %84 = load ptr, ptr %83, align 8, !tbaa !35
  %85 = getelementptr inbounds nuw %struct.ewah_bitmap, ptr %84, i32 0, i32 3
  %86 = load i64, ptr %85, align 8, !tbaa !37
  call void @assert_index_minimum(ptr noundef %81, i64 noundef %86)
  br label %87

87:                                               ; preds = %80, %72
  %88 = load ptr, ptr %5, align 8, !tbaa !4
  %89 = getelementptr inbounds nuw %struct.index_state, ptr %88, i32 0, i32 15
  %90 = load ptr, ptr %89, align 8, !tbaa !18
  call void @trace2_data_string_fl(ptr noundef @.str.5, i32 noundef 102, ptr noundef @.str.6, ptr noundef null, ptr noundef @.str.7, ptr noundef %90)
  br label %91

91:                                               ; preds = %87
  %92 = call i32 @trace_pass_fl(ptr noundef @trace_fsmonitor)
  %93 = icmp ne i32 %92, 0
  br i1 %93, label %94, label %98

94:                                               ; preds = %91
  %95 = load ptr, ptr %5, align 8, !tbaa !4
  %96 = getelementptr inbounds nuw %struct.index_state, ptr %95, i32 0, i32 15
  %97 = load ptr, ptr %96, align 8, !tbaa !18
  call void (ptr, i32, ptr, ptr, ...) @trace_printf_key_fl(ptr noundef @.str.5, i32 noundef 105, ptr noundef @trace_fsmonitor, ptr noundef @.str.8, ptr noundef %97)
  br label %98

98:                                               ; preds = %94, %91
  br label %99

99:                                               ; preds = %98
  br label %100

100:                                              ; preds = %99
  store i32 0, ptr %4, align 4
  store i32 1, ptr %15, align 4
  br label %101

101:                                              ; preds = %100, %68, %45, %19
  call void @llvm.lifetime.end.p0(i64 24, ptr %14) #8
  call void @llvm.lifetime.end.p0(i64 8, ptr %13) #8
  call void @llvm.lifetime.end.p0(i64 4, ptr %12) #8
  call void @llvm.lifetime.end.p0(i64 8, ptr %11) #8
  call void @llvm.lifetime.end.p0(i64 4, ptr %10) #8
  call void @llvm.lifetime.end.p0(i64 4, ptr %9) #8
  call void @llvm.lifetime.end.p0(i64 8, ptr %8) #8
  %102 = load i32, ptr %4, align 4
  ret i32 %102
}