; Function Attrs: nounwind uwtable
define dso_local range(i32 -1, 1) i32 @read_fsmonitor_extension(ptr noundef captures(none) %0, ptr noundef %1, i64 noundef %2) local_unnamed_addr #0 {
  %4 = alloca %struct.strbuf, align 8
  call void @llvm.lifetime.start.p0(i64 24, ptr nonnull %4) #8
  call void @llvm.memcpy.p0.p0.i64(ptr noundef nonnull align 8 dereferenceable(24) %4, ptr noundef nonnull align 8 dereferenceable(24) @__const.initialize_fsmonitor_last_update.last_update, i64 24, i1 false)
  %5 = icmp ult i64 %2, 9
  br i1 %5, label %6, label %8

6:                                                ; preds = %3
  %7 = tail call i32 (ptr, ...) @error(ptr noundef nonnull @.str.1) #8
  br label %116

8:                                                ; preds = %3
  %9 = load i8, ptr %1, align 1, !tbaa !4
  %10 = zext i8 %9 to i32
  %11 = shl nuw i32 %10, 24
  %12 = getelementptr inbounds nuw i8, ptr %1, i64 1
  %13 = load i8, ptr %12, align 1, !tbaa !4
  %14 = zext i8 %13 to i32
  %15 = shl nuw nsw i32 %14, 16
  %16 = or disjoint i32 %15, %11
  %17 = getelementptr inbounds nuw i8, ptr %1, i64 2
  %18 = load i8, ptr %17, align 1, !tbaa !4
  %19 = zext i8 %18 to i32
  %20 = shl nuw nsw i32 %19, 8
  %21 = or disjoint i32 %16, %20
  %22 = getelementptr inbounds nuw i8, ptr %1, i64 3
  %23 = load i8, ptr %22, align 1, !tbaa !4
  %24 = zext i8 %23 to i32
  %25 = or disjoint i32 %21, %24
  %26 = getelementptr inbounds nuw i8, ptr %1, i64 4
  switch i32 %25, label %72 [
    i32 1, label %27
    i32 2, label %66
  ]

27:                                               ; preds = %8
  %28 = load i8, ptr %26, align 1, !tbaa !4
  %29 = zext i8 %28 to i64
  %30 = shl nuw nsw i64 %29, 24
  %31 = getelementptr inbounds nuw i8, ptr %1, i64 5
  %32 = load i8, ptr %31, align 1, !tbaa !4
  %33 = zext i8 %32 to i64
  %34 = shl nuw nsw i64 %33, 16
  %35 = or disjoint i64 %34, %30
  %36 = getelementptr inbounds nuw i8, ptr %1, i64 6
  %37 = load i8, ptr %36, align 1, !tbaa !4
  %38 = zext i8 %37 to i64
  %39 = shl nuw nsw i64 %38, 8
  %40 = or disjoint i64 %35, %39
  %41 = getelementptr inbounds nuw i8, ptr %1, i64 7
  %42 = load i8, ptr %41, align 1, !tbaa !4
  %43 = zext i8 %42 to i64
  %44 = or disjoint i64 %40, %43
  %45 = shl nuw i64 %44, 32
  %46 = getelementptr inbounds nuw i8, ptr %1, i64 8
  %47 = load i8, ptr %46, align 1, !tbaa !4
  %48 = zext i8 %47 to i64
  %49 = shl nuw nsw i64 %48, 24
  %50 = getelementptr inbounds nuw i8, ptr %1, i64 9
  %51 = load i8, ptr %50, align 1, !tbaa !4
  %52 = zext i8 %51 to i64
  %53 = shl nuw nsw i64 %52, 16
  %54 = or disjoint i64 %53, %49
  %55 = getelementptr inbounds nuw i8, ptr %1, i64 10
  %56 = load i8, ptr %55, align 1, !tbaa !4
  %57 = zext i8 %56 to i64
  %58 = shl nuw nsw i64 %57, 8
  %59 = getelementptr inbounds nuw i8, ptr %1, i64 11
  %60 = load i8, ptr %59, align 1, !tbaa !4
  %61 = zext i8 %60 to i64
  %62 = or disjoint i64 %54, %45
  %63 = or disjoint i64 %62, %58
  %64 = or disjoint i64 %63, %61
  call void (ptr, ptr, ...) @strbuf_addf(ptr noundef nonnull %4, ptr noundef nonnull @.str.2, i64 noundef %64) #8
  %65 = getelementptr inbounds nuw i8, ptr %1, i64 12
  br label %74

66:                                               ; preds = %8
  %67 = tail call i64 @strlen(ptr noundef nonnull dereferenceable(1) %26) #9
  call void @strbuf_add(ptr noundef nonnull %4, ptr noundef nonnull %26, i64 noundef %67) #8
  %68 = getelementptr inbounds nuw i8, ptr %4, i64 8
  %69 = load i64, ptr %68, align 8, !tbaa !7
  %70 = getelementptr i8, ptr %26, i64 %69
  %71 = getelementptr i8, ptr %70, i64 1
  br label %74

72:                                               ; preds = %8
  %73 = tail call i32 (ptr, ...) @error(ptr noundef nonnull @.str.3, i32 noundef %25) #8
  br label %116

74:                                               ; preds = %66, %27
  %.028 = phi ptr [ %65, %27 ], [ %71, %66 ]
  %75 = call ptr @strbuf_detach(ptr noundef nonnull %4, ptr noundef null) #8
  %76 = getelementptr inbounds nuw i8, ptr %0, i64 208
  store ptr %75, ptr %76, align 8, !tbaa !12
  %77 = load i8, ptr %.028, align 1, !tbaa !4
  %78 = zext i8 %77 to i32
  %79 = shl nuw i32 %78, 24
  %80 = getelementptr inbounds nuw i8, ptr %.028, i64 1
  %81 = load i8, ptr %80, align 1, !tbaa !4
  %82 = zext i8 %81 to i32
  %83 = shl nuw nsw i32 %82, 16
  %84 = or disjoint i32 %83, %79
  %85 = getelementptr inbounds nuw i8, ptr %.028, i64 2
  %86 = load i8, ptr %85, align 1, !tbaa !4
  %87 = zext i8 %86 to i32
  %88 = shl nuw nsw i32 %87, 8
  %89 = or disjoint i32 %84, %88
  %90 = getelementptr inbounds nuw i8, ptr %.028, i64 3
  %91 = load i8, ptr %90, align 1, !tbaa !4
  %92 = zext i8 %91 to i32
  %93 = or disjoint i32 %89, %92
  %94 = getelementptr inbounds nuw i8, ptr %.028, i64 4
  %95 = call ptr @ewah_new() #8
  %96 = zext i32 %93 to i64
  %97 = call i64 @ewah_read_mmap(ptr noundef %95, ptr noundef nonnull %94, i64 noundef %96) #8
  %98 = trunc i64 %97 to i32
  %.not = icmp eq i32 %93, %98
  br i1 %.not, label %101, label %99

99:                                               ; preds = %74
  call void @ewah_free(ptr noundef %95) #8
  %100 = call i32 (ptr, ...) @error(ptr noundef nonnull @.str.4) #8
  br label %116

101:                                              ; preds = %74
  %102 = getelementptr inbounds nuw i8, ptr %0, i64 216
  store ptr %95, ptr %102, align 8, !tbaa !29
  %103 = getelementptr inbounds nuw i8, ptr %0, i64 40
  %104 = load ptr, ptr %103, align 8, !tbaa !30
  %.not30 = icmp eq ptr %104, null
  br i1 %.not30, label %105, label %assert_index_minimum.exit

105:                                              ; preds = %101
  %106 = getelementptr inbounds nuw i8, ptr %95, i64 24
  %107 = load i64, ptr %106, align 8, !tbaa !31
  %108 = getelementptr i8, ptr %0, i64 12
  %.val = load i32, ptr %108, align 4, !tbaa !34
  %109 = zext i32 %.val to i64
  %110 = icmp ugt i64 %107, %109
  br i1 %110, label %111, label %assert_index_minimum.exit

111:                                              ; preds = %105
  call void (ptr, i32, ptr, ...) @BUG_fl(ptr noundef nonnull @.str.5, i32 noundef 28, ptr noundef nonnull @.str.27, i64 noundef %107, i32 noundef %.val) #10
  unreachable

assert_index_minimum.exit:                        ; preds = %105, %101
  %112 = load ptr, ptr %76, align 8, !tbaa !12
  call void @trace2_data_string_fl(ptr noundef nonnull @.str.5, i32 noundef 102, ptr noundef nonnull @.str.6, ptr noundef null, ptr noundef nonnull @.str.7, ptr noundef %112) #8
  %trace_fsmonitor.val = load i32, ptr getelementptr inbounds nuw (i8, ptr @trace_fsmonitor, i64 8), align 8, !tbaa !35
  %trace_fsmonitor.val32 = load i8, ptr getelementptr inbounds nuw (i8, ptr @trace_fsmonitor, i64 12), align 4
  %.not.i = icmp eq i32 %trace_fsmonitor.val, 0
  %113 = and i8 %trace_fsmonitor.val32, 1
  %.not3133 = icmp ne i8 %113, 0
  %.not31 = select i1 %.not.i, i1 %.not3133, i1 false
  br i1 %.not31, label %116, label %114

114:                                              ; preds = %assert_index_minimum.exit
  %115 = load ptr, ptr %76, align 8, !tbaa !12
  call void (ptr, i32, ptr, ptr, ...) @trace_printf_key_fl(ptr noundef nonnull @.str.5, i32 noundef 105, ptr noundef nonnull @trace_fsmonitor, ptr noundef nonnull @.str.8, ptr noundef %115) #8
  br label %116

116:                                              ; preds = %assert_index_minimum.exit, %114, %99, %72, %6
  %.0 = phi i32 [ -1, %6 ], [ -1, %99 ], [ -1, %72 ], [ 0, %114 ], [ 0, %assert_index_minimum.exit ]
  call void @llvm.lifetime.end.p0(i64 24, ptr nonnull %4) #8
  ret i32 %.0
}